target datalayout = "e-m:e-p270:32:32-p271:32:32-p272:64:64-i64:64-i128:128-f80:128-n8:16:32:64-S128"
target triple = "x86_64-pc-linux-gnu"

%struct.Latch = type { i32, i32, i8, i32 }
%struct.PGPROC = type { %struct.dlist_node, ptr, ptr, i32, %struct.Latch, i32, i32, i32, i32, %struct.anon, i32, i32, i32, i8, i8, i8, i8, %struct.proclist_node, %struct.proclist_node, ptr, ptr, i32, i32, %struct.pg_atomic_uint64, i32, i8, i64, i32, %struct.dlist_node, [16 x %struct.dlist_head], %struct.XidCacheStatus, %struct.XidCache, i8, %struct.pg_atomic_uint32, i32, i32, i8, %struct.pg_atomic_uint32, i32, i32, i64, i64, %struct.LWLock, ptr, ptr, i8, i32, ptr, %struct.dlist_head, %struct.dlist_node }
%struct.anon = type { i32, i32 }
%struct.proclist_node = type { i32, i32 }
%struct.pg_atomic_uint64 = type { i64 }
%struct.XidCacheStatus = type { i8, i8 }
%struct.XidCache = type { [64 x i32] }
%struct.pg_atomic_uint32 = type { i32 }
%struct.LWLock = type { i16, %struct.pg_atomic_uint32, %struct.proclist_head }
%struct.proclist_head = type { i32, i32 }
%struct.dlist_head = type { %struct.dlist_node }
%struct.dlist_node = type { ptr, ptr }
%struct.FormData_pg_authid = type { i32, %struct.nameData, i8, i8, i8, i8, i8, i8, i8, i32 }
%struct.nameData = type { [64 x i8] }
%struct.HeapTupleData = type { i32, %struct.ItemPointerData, i32, ptr }
%struct.ItemPointerData = type { %struct.BlockIdData, i16 }
%struct.BlockIdData = type { i16, i16 }
%struct.HeapTupleHeaderData = type { %union.anon, %struct.ItemPointerData, i16, i16, i8, [0 x i8] }
%union.anon = type { %struct.HeapTupleFields }
%struct.HeapTupleFields = type { i32, i32, %union.anon.0 }
%union.anon.0 = type { i32 }

@IsUnderPostmaster = external global i8, align 1
@.str.1 = private unnamed_addr constant [11 x i8] c"miscinit.c\00", align 1
@MyBackendType = dso_local global i32 0, align 4
@MyProc = external global ptr, align 8
@AuthenticatedUserId = internal global i32 0, align 4
@InitializingParallelWorker = external global i8, align 1
@.str.32 = private unnamed_addr constant [25 x i8] c"role \22%s\22 does not exist\00", align 1
@__func__.InitializeSessionUserId = private unnamed_addr constant [24 x i8] c"InitializeSessionUserId\00", align 1
@.str.33 = private unnamed_addr constant [32 x i8] c"role with OID %u does not exist\00", align 1
@.str.34 = private unnamed_addr constant [22 x i8] c"session_authorization\00", align 1
@.str.35 = private unnamed_addr constant [37 x i8] c"role \22%s\22 is not permitted to log in\00", align 1
@.str.36 = private unnamed_addr constant [35 x i8] c"too many connections for role \22%s\22\00", align 1

; Function Attrs: nounwind uwtable
define dso_local void @SetAuthenticatedUserId(i32 noundef %0) #0 {
  %2 = alloca i32, align 4
  store i32 %0, ptr %2, align 4
  %3 = load i32, ptr %2, align 4
  store i32 %3, ptr @AuthenticatedUserId, align 4
  %4 = load i32, ptr %2, align 4
  %5 = load ptr, ptr @MyProc, align 8
  %6 = getelementptr inbounds nuw %struct.PGPROC, ptr %5, i32 0, i32 11
  store i32 %4, ptr %6, align 8
  ret void
}

; Function Attrs: inlinehint nounwind uwtable
define internal ptr @GETSTRUCT(ptr noundef %0) #6 {
  %2 = alloca ptr, align 8
  store ptr %0, ptr %2, align 8
  %3 = load ptr, ptr %2, align 8
  %4 = getelementptr inbounds nuw %struct.HeapTupleData, ptr %3, i32 0, i32 3
  %5 = load ptr, ptr %4, align 8
  %6 = load ptr, ptr %2, align 8
  %7 = getelementptr inbounds nuw %struct.HeapTupleData, ptr %6, i32 0, i32 3
  %8 = load ptr, ptr %7, align 8
  %9 = getelementptr inbounds nuw %struct.HeapTupleHeaderData, ptr %8, i32 0, i32 4
  %10 = load i8, ptr %9, align 2
  %11 = zext i8 %10 to i32
  %12 = sext i32 %11 to i64
  %13 = getelementptr inbounds i8, ptr %5, i64 %12
  ret ptr %13
}

; Function Attrs: inlinehint nounwind uwtable
define internal i64 @ObjectIdGetDatum(i32 noundef %0) #6 {
  %2 = alloca i32, align 4
  store i32 %0, ptr %2, align 4
  %3 = load i32, ptr %2, align 4
  %4 = zext i32 %3 to i64
  ret i64 %4
}

; Function Attrs: inlinehint nounwind uwtable
define internal i64 @PointerGetDatum(ptr noundef %0) #6 {
  %2 = alloca ptr, align 8
  store ptr %0, ptr %2, align 8
  %3 = load ptr, ptr %2, align 8
  %4 = ptrtoint ptr %3 to i64
  ret i64 %4
}

; Function Attrs: nounwind uwtable
define dso_local void @InitializeSessionUserId(ptr noundef %0, i32 noundef %1, i1 noundef zeroext %2) #0 {
  %4 = alloca ptr, align 8
  %5 = alloca i32, align 4
  %6 = alloca i8, align 1
  %7 = alloca ptr, align 8
  %8 = alloca ptr, align 8
  %9 = alloca ptr, align 8
  %10 = alloca i8, align 1
  %11 = alloca i32, align 4
  store ptr %0, ptr %4, align 8
  store i32 %1, ptr %5, align 4
  %12 = zext i1 %2 to i8
  store i8 %12, ptr %6, align 1
  call void @llvm.lifetime.start.p0(i64 8, ptr %7) #12
  call void @llvm.lifetime.start.p0(i64 8, ptr %8) #12
  call void @llvm.lifetime.start.p0(i64 8, ptr %9) #12
  call void @llvm.lifetime.start.p0(i64 1, ptr %10) #12
  %13 = load i8, ptr @InitializingParallelWorker, align 1, !range !4, !noundef !5
  %14 = trunc i8 %13 to i1
  br i1 %14, label %15, label %16

15:                                               ; preds = %3
  store i32 1, ptr %11, align 4
  br label %133

16:                                               ; preds = %3
  call void @AcceptInvalidationMessages()
  %17 = load ptr, ptr %4, align 8
  %18 = icmp ne ptr %17, null
  br i1 %18, label %19, label %39

19:                                               ; preds = %16
  %20 = load ptr, ptr %4, align 8
  %21 = call i64 @PointerGetDatum(ptr noundef %20)
  %22 = call ptr @SearchSysCache1(i32 noundef 10, i64 noundef %21)
  store ptr %22, ptr %7, align 8
  %23 = load ptr, ptr %7, align 8
  %24 = icmp ne ptr %23, null
  br i1 %24, label %38, label %25

25:                                               ; preds = %19
  br label %26

26:                                               ; preds = %25
  br i1 true, label %27, label %29

27:                                               ; preds = %26
  %28 = call zeroext i1 @errstart_cold(i32 noundef 22, ptr noundef null) #13
  br i1 %28, label %31, label %35

29:                                               ; preds = %26
  %30 = call zeroext i1 @errstart(i32 noundef 22, ptr noundef null)
  br i1 %30, label %31, label %35

31:                                               ; preds = %29, %27
  %32 = call i32 @errcode(i32 noundef 514)
  %33 = load ptr, ptr %4, align 8
  %34 = call i32 (ptr, ...) @errmsg(ptr noundef @.str.32, ptr noundef %33)
  call void @errfinish(ptr noundef @.str.1, i32 noundef 801, ptr noundef @__func__.InitializeSessionUserId)
  br label %35

35:                                               ; preds = %31, %29, %27
  unreachable

36:                                               ; No predecessors!
  br label %37

37:                                               ; preds = %36
  br label %38

38:                                               ; preds = %37, %19
  br label %59

39:                                               ; preds = %16
  %40 = load i32, ptr %5, align 4
  %41 = call i64 @ObjectIdGetDatum(i32 noundef %40)
  %42 = call ptr @SearchSysCache1(i32 noundef 11, i64 noundef %41)
  store ptr %42, ptr %7, align 8
  %43 = load ptr, ptr %7, align 8
  %44 = icmp ne ptr %43, null
  br i1 %44, label %58, label %45

45:                                               ; preds = %39
  br label %46

46:                                               ; preds = %45
  br i1 true, label %47, label %49

47:                                               ; preds = %46
  %48 = call zeroext i1 @errstart_cold(i32 noundef 22, ptr noundef null) #13
  br i1 %48, label %51, label %55

49:                                               ; preds = %46
  %50 = call zeroext i1 @errstart(i32 noundef 22, ptr noundef null)
  br i1 %50, label %51, label %55

51:                                               ; preds = %49, %47
  %52 = call i32 @errcode(i32 noundef 514)
  %53 = load i32, ptr %5, align 4
  %54 = call i32 (ptr, ...) @errmsg(ptr noundef @.str.33, i32 noundef %53)
  call void @errfinish(ptr noundef @.str.1, i32 noundef 809, ptr noundef @__func__.InitializeSessionUserId)
  br label %55

55:                                               ; preds = %51, %49, %47
  unreachable

56:                                               ; No predecessors!
  br label %57

57:                                               ; preds = %56
  br label %58

58:                                               ; preds = %57, %39
  br label %59

59:                                               ; preds = %58, %38
  %60 = load ptr, ptr %7, align 8
  %61 = call ptr @GETSTRUCT(ptr noundef %60)
  store ptr %61, ptr %8, align 8
  %62 = load ptr, ptr %8, align 8
  %63 = getelementptr inbounds nuw %struct.FormData_pg_authid, ptr %62, i32 0, i32 0
  %64 = load i32, ptr %63, align 4
  store i32 %64, ptr %5, align 4
  %65 = load ptr, ptr %8, align 8
  %66 = getelementptr inbounds nuw %struct.FormData_pg_authid, ptr %65, i32 0, i32 1
  %67 = getelementptr inbounds nuw %struct.nameData, ptr %66, i32 0, i32 0
  %68 = getelementptr inbounds [64 x i8], ptr %67, i64 0, i64 0
  store ptr %68, ptr %9, align 8
  %69 = load ptr, ptr %8, align 8
  %70 = getelementptr inbounds nuw %struct.FormData_pg_authid, ptr %69, i32 0, i32 2
  %71 = load i8, ptr %70, align 4, !range !4, !noundef !5
  %72 = trunc i8 %71 to i1
  %73 = zext i1 %72 to i8
  store i8 %73, ptr %10, align 1
  %74 = load i32, ptr %5, align 4
  call void @SetAuthenticatedUserId(i32 noundef %74)
  %75 = load ptr, ptr %9, align 8
  call void @SetConfigOption(ptr noundef @.str.34, ptr noundef %75, i32 noundef 4, i32 noundef 10)
  %76 = load i8, ptr @IsUnderPostmaster, align 1, !range !4, !noundef !5
  %77 = trunc i8 %76 to i1
  br i1 %77, label %78, label %131

78:                                               ; preds = %59
  %79 = load i8, ptr %6, align 1, !range !4, !noundef !5
  %80 = trunc i8 %79 to i1
  br i1 %80, label %99, label %81

81:                                               ; preds = %78
  %82 = load ptr, ptr %8, align 8
  %83 = getelementptr inbounds nuw %struct.FormData_pg_authid, ptr %82, i32 0, i32 6
  %84 = load i8, ptr %83, align 4, !range !4, !noundef !5
  %85 = trunc i8 %84 to i1
  br i1 %85, label %99, label %86

86:                                               ; preds = %81
  br label %87

87:                                               ; preds = %86
  br i1 true, label %88, label %90

88:                                               ; preds = %87
  %89 = call zeroext i1 @errstart_cold(i32 noundef 22, ptr noundef null) #13
  br i1 %89, label %92, label %96

90:                                               ; preds = %87
  %91 = call zeroext i1 @errstart(i32 noundef 22, ptr noundef null)
  br i1 %91, label %92, label %96

92:                                               ; preds = %90, %88
  %93 = call i32 @errcode(i32 noundef 514)
  %94 = load ptr, ptr %9, align 8
  %95 = call i32 (ptr, ...) @errmsg(ptr noundef @.str.35, ptr noundef %94)
  call void @errfinish(ptr noundef @.str.1, i32 noundef 856, ptr noundef @__func__.InitializeSessionUserId)
  br label %96

96:                                               ; preds = %92, %90, %88
  unreachable

97:                                               ; No predecessors!
  br label %98

98:                                               ; preds = %97
  br label %99

99:                                               ; preds = %98, %81, %78
  %100 = load ptr, ptr %8, align 8
  %101 = getelementptr inbounds nuw %struct.FormData_pg_authid, ptr %100, i32 0, i32 9
  %102 = load i32, ptr %101, align 4
  %103 = icmp sge i32 %102, 0
  br i1 %103, label %104, label %130

104:                                              ; preds = %99
  %105 = load i32, ptr @MyBackendType, align 4
  %106 = icmp eq i32 %105, 1
  br i1 %106, label %107, label %130

107:                                              ; preds = %104
  %108 = load i8, ptr %10, align 1, !range !4, !noundef !5
  %109 = trunc i8 %108 to i1
  br i1 %109, label %130, label %110

110:                                              ; preds = %107
  %111 = load i32, ptr %5, align 4
  %112 = call i32 @CountUserBackends(i32 noundef %111)
  %113 = load ptr, ptr %8, align 8
  %114 = getelementptr inbounds nuw %struct.FormData_pg_authid, ptr %113, i32 0, i32 9
  %115 = load i32, ptr %114, align 4
  %116 = icmp sgt i32 %112, %115
  br i1 %116, label %117, label %130

117:                                              ; preds = %110
  br label %118

118:                                              ; preds = %117
  br i1 true, label %119, label %121

119:                                              ; preds = %118
  %120 = call zeroext i1 @errstart_cold(i32 noundef 22, ptr noundef null) #13
  br i1 %120, label %123, label %127

121:                                              ; preds = %118
  %122 = call zeroext i1 @errstart(i32 noundef 22, ptr noundef null)
  br i1 %122, label %123, label %127

123:                                              ; preds = %121, %119
  %124 = call i32 @errcode(i32 noundef 12485)
  %125 = load ptr, ptr %9, align 8
  %126 = call i32 (ptr, ...) @errmsg(ptr noundef @.str.36, ptr noundef %125)
  call void @errfinish(ptr noundef @.str.1, i32 noundef 877, ptr noundef @__func__.InitializeSessionUserId)
  br label %127

127:                                              ; preds = %123, %121, %119
  unreachable

128:                                              ; No predecessors!
  br label %129

129:                                              ; preds = %128
  br label %130

130:                                              ; preds = %129, %110, %107, %104, %99
  br label %131

131:                                              ; preds = %130, %59
  %132 = load ptr, ptr %7, align 8
  call void @ReleaseSysCache(ptr noundef %132)
  store i32 0, ptr %11, align 4
  br label %133

133:                                              ; preds = %131, %15
  call void @llvm.lifetime.end.p0(i64 1, ptr %10) #12
  call void @llvm.lifetime.end.p0(i64 8, ptr %9) #12
  call void @llvm.lifetime.end.p0(i64 8, ptr %8) #12
  call void @llvm.lifetime.end.p0(i64 8, ptr %7) #12
  %134 = load i32, ptr %11, align 4
  switch i32 %134, label %136 [
    i32 0, label %135
    i32 1, label %135
  ]

135:                                              ; preds = %133, %133
  ret void

136:                                              ; preds = %133
  unreachable
}