; Function Attrs: nounwind uwtable
define dso_local void @InitializeSessionUserId(ptr noundef %0, i32 noundef %1, i1 noundef zeroext %2) local_unnamed_addr #0 {
  %4 = load i8, ptr @InitializingParallelWorker, align 1, !range !4, !noundef !5
  %5 = trunc nuw i8 %4 to i1
  br i1 %5, label %60, label %6

6:                                                ; preds = %3
  tail call void @AcceptInvalidationMessages() #22
  %.not = icmp eq ptr %0, null
  br i1 %.not, label %14, label %7

7:                                                ; preds = %6
  %8 = ptrtoint ptr %0 to i64
  %9 = tail call ptr @SearchSysCache1(i32 noundef 10, i64 noundef %8) #22
  %.not26 = icmp eq ptr %9, null
  br i1 %.not26, label %10, label %21

10:                                               ; preds = %7
  %11 = tail call zeroext i1 @errstart_cold(i32 noundef 22, ptr noundef null) #23
  tail call void @llvm.assume(i1 %11)
  %12 = tail call i32 @errcode(i32 noundef 514) #22
  %13 = tail call i32 (ptr, ...) @errmsg(ptr noundef nonnull @.str.32, ptr noundef nonnull %0) #22
  tail call void @errfinish(ptr noundef nonnull @.str.1, i32 noundef 801, ptr noundef nonnull @__func__.InitializeSessionUserId) #22
  unreachable

14:                                               ; preds = %6
  %15 = zext i32 %1 to i64
  %16 = tail call ptr @SearchSysCache1(i32 noundef 11, i64 noundef %15) #22
  %.not25 = icmp eq ptr %16, null
  br i1 %.not25, label %17, label %21

17:                                               ; preds = %14
  %18 = tail call zeroext i1 @errstart_cold(i32 noundef 22, ptr noundef null) #23
  tail call void @llvm.assume(i1 %18)
  %19 = tail call i32 @errcode(i32 noundef 514) #22
  %20 = tail call i32 (ptr, ...) @errmsg(ptr noundef nonnull @.str.33, i32 noundef %1) #22
  tail call void @errfinish(ptr noundef nonnull @.str.1, i32 noundef 809, ptr noundef nonnull @__func__.InitializeSessionUserId) #22
  unreachable

21:                                               ; preds = %14, %7
  %.0 = phi ptr [ %9, %7 ], [ %16, %14 ]
  %22 = getelementptr i8, ptr %.0, i64 16
  %.0.val = load ptr, ptr %22, align 8
  %23 = getelementptr inbounds nuw i8, ptr %.0.val, i64 22
  %24 = load i8, ptr %23, align 2
  %25 = zext i8 %24 to i64
  %26 = getelementptr inbounds nuw i8, ptr %.0.val, i64 %25
  %27 = load i32, ptr %26, align 4
  %28 = getelementptr inbounds nuw i8, ptr %26, i64 4
  %29 = getelementptr inbounds nuw i8, ptr %26, i64 68
  %30 = load i8, ptr %29, align 4, !range !4, !noundef !5
  %31 = trunc nuw i8 %30 to i1
  store i32 %27, ptr @AuthenticatedUserId, align 4
  %32 = load ptr, ptr @MyProc, align 8
  %33 = getelementptr inbounds nuw i8, ptr %32, i64 80
  store i32 %27, ptr %33, align 8
  tail call void @SetConfigOption(ptr noundef nonnull @.str.34, ptr noundef nonnull %28, i32 noundef 4, i32 noundef 10) #22
  %34 = load i8, ptr @IsUnderPostmaster, align 1, !range !4, !noundef !5
  %35 = trunc nuw i8 %34 to i1
  br i1 %35, label %36, label %59

36:                                               ; preds = %21
  br i1 %2, label %45, label %37

37:                                               ; preds = %36
  %38 = getelementptr inbounds nuw i8, ptr %26, i64 72
  %39 = load i8, ptr %38, align 4, !range !4, !noundef !5
  %40 = trunc nuw i8 %39 to i1
  br i1 %40, label %45, label %41

41:                                               ; preds = %37
  %42 = tail call zeroext i1 @errstart_cold(i32 noundef 22, ptr noundef null) #23
  tail call void @llvm.assume(i1 %42)
  %43 = tail call i32 @errcode(i32 noundef 514) #22
  %44 = tail call i32 (ptr, ...) @errmsg(ptr noundef nonnull @.str.35, ptr noundef nonnull %28) #22
  tail call void @errfinish(ptr noundef nonnull @.str.1, i32 noundef 856, ptr noundef nonnull @__func__.InitializeSessionUserId) #22
  unreachable

45:                                               ; preds = %37, %36
  %46 = getelementptr inbounds nuw i8, ptr %26, i64 76
  %47 = load i32, ptr %46, align 4
  %48 = icmp slt i32 %47, 0
  %49 = load i32, ptr @MyBackendType, align 4
  %50 = icmp ne i32 %49, 1
  %or.cond.not29 = select i1 %48, i1 true, i1 %50
  %brmerge = select i1 %or.cond.not29, i1 true, i1 %31
  br i1 %brmerge, label %59, label %51

51:                                               ; preds = %45
  %52 = tail call i32 @CountUserBackends(i32 noundef %27) #22
  %53 = load i32, ptr %46, align 4
  %54 = icmp sgt i32 %52, %53
  br i1 %54, label %55, label %59

55:                                               ; preds = %51
  %56 = tail call zeroext i1 @errstart_cold(i32 noundef 22, ptr noundef null) #23
  tail call void @llvm.assume(i1 %56)
  %57 = tail call i32 @errcode(i32 noundef 12485) #22
  %58 = tail call i32 (ptr, ...) @errmsg(ptr noundef nonnull @.str.36, ptr noundef nonnull %28) #22
  tail call void @errfinish(ptr noundef nonnull @.str.1, i32 noundef 877, ptr noundef nonnull @__func__.InitializeSessionUserId) #22
  unreachable

59:                                               ; preds = %45, %51, %21
  tail call void @ReleaseSysCache(ptr noundef nonnull %.0) #22
  br label %60

60:                                               ; preds = %3, %59
  ret void
}